; ModuleID = '57/2636.c'
source_filename = "57/2636.c"
target datalayout = "e-m:e-p270:32:32-p271:32:32-p272:64:64-i64:64-f80:128-n8:16:32:64-S128"
target triple = "x86_64-pc-linux-gnu"

@.str = private unnamed_addr constant [3 x i8] c"%d\00", align 1
@.str.1 = private unnamed_addr constant [3 x i8] c"%s\00", align 1

; Function Attrs: noinline nounwind uwtable
define dso_local void @main() #0 {
  %1 = alloca i32, align 4
  %2 = alloca i32, align 4
  %3 = alloca i32, align 4
  %4 = alloca [20 x i8], align 16
  %5 = alloca [100 x [20 x i8]], align 16
  %6 = call i32 (i8*, ...) @__isoc99_scanf(i8* getelementptr inbounds ([3 x i8], [3 x i8]* @.str, i64 0, i64 0), i32* %1)
  store i32 0, i32* %2, align 4
  br label %7

7:                                                ; preds = %125, %0
  %8 = load i32, i32* %2, align 4
  %9 = load i32, i32* %1, align 4
  %10 = icmp slt i32 %8, %9
  br i1 %10, label %11, label %128

11:                                               ; preds = %7
  %12 = getelementptr inbounds [20 x i8], [20 x i8]* %4, i64 0, i64 0
  %13 = call i32 (i8*, ...) @__isoc99_scanf(i8* getelementptr inbounds ([3 x i8], [3 x i8]* @.str.1, i64 0, i64 0), i8* %12)
  %14 = getelementptr inbounds [20 x i8], [20 x i8]* %4, i64 0, i64 0
  %15 = call i64 @strlen(i8* %14) #3
  %16 = sub i64 %15, 1
  %17 = getelementptr inbounds [20 x i8], [20 x i8]* %4, i64 0, i64 %16
  %18 = load i8, i8* %17, align 1
  %19 = sext i8 %18 to i32
  %20 = icmp eq i32 %19, 114
  br i1 %20, label %21, label %50

21:                                               ; preds = %11
  store i32 0, i32* %3, align 4
  br label %22

22:                                               ; preds = %40, %21
  %23 = load i32, i32* %3, align 4
  %24 = sext i32 %23 to i64
  %25 = getelementptr inbounds [20 x i8], [20 x i8]* %4, i64 0, i64 0
  %26 = call i64 @strlen(i8* %25) #3
  %27 = sub i64 %26, 2
  %28 = icmp ult i64 %24, %27
  br i1 %28, label %29, label %43

29:                                               ; preds = %22
  %30 = load i32, i32* %3, align 4
  %31 = sext i32 %30 to i64
  %32 = getelementptr inbounds [20 x i8], [20 x i8]* %4, i64 0, i64 %31
  %33 = load i8, i8* %32, align 1
  %34 = load i32, i32* %2, align 4
  %35 = sext i32 %34 to i64
  %36 = getelementptr inbounds [100 x [20 x i8]], [100 x [20 x i8]]* %5, i64 0, i64 %35
  %37 = load i32, i32* %3, align 4
  %38 = sext i32 %37 to i64
  %39 = getelementptr inbounds [20 x i8], [20 x i8]* %36, i64 0, i64 %38
  store i8 %33, i8* %39, align 1
  br label %40

40:                                               ; preds = %29
  %41 = load i32, i32* %3, align 4
  %42 = add nsw i32 %41, 1
  store i32 %42, i32* %3, align 4
  br label %22

43:                                               ; preds = %22
  %44 = load i32, i32* %2, align 4
  %45 = sext i32 %44 to i64
  %46 = getelementptr inbounds [100 x [20 x i8]], [100 x [20 x i8]]* %5, i64 0, i64 %45
  %47 = load i32, i32* %3, align 4
  %48 = sext i32 %47 to i64
  %49 = getelementptr inbounds [20 x i8], [20 x i8]* %46, i64 0, i64 %48
  store i8 0, i8* %49, align 1
  br label %50

50:                                               ; preds = %43, %11
  %51 = getelementptr inbounds [20 x i8], [20 x i8]* %4, i64 0, i64 0
  %52 = call i64 @strlen(i8* %51) #3
  %53 = sub i64 %52, 1
  %54 = getelementptr inbounds [20 x i8], [20 x i8]* %4, i64 0, i64 %53
  %55 = load i8, i8* %54, align 1
  %56 = sext i8 %55 to i32
  %57 = icmp eq i32 %56, 121
  br i1 %57, label %58, label %87

58:                                               ; preds = %50
  store i32 0, i32* %3, align 4
  br label %59

59:                                               ; preds = %77, %58
  %60 = load i32, i32* %3, align 4
  %61 = sext i32 %60 to i64
  %62 = getelementptr inbounds [20 x i8], [20 x i8]* %4, i64 0, i64 0
  %63 = call i64 @strlen(i8* %62) #3
  %64 = sub i64 %63, 2
  %65 = icmp ult i64 %61, %64
  br i1 %65, label %66, label %80

66:                                               ; preds = %59
  %67 = load i32, i32* %3, align 4
  %68 = sext i32 %67 to i64
  %69 = getelementptr inbounds [20 x i8], [20 x i8]* %4, i64 0, i64 %68
  %70 = load i8, i8* %69, align 1
  %71 = load i32, i32* %2, align 4
  %72 = sext i32 %71 to i64
  %73 = getelementptr inbounds [100 x [20 x i8]], [100 x [20 x i8]]* %5, i64 0, i64 %72
  %74 = load i32, i32* %3, align 4
  %75 = sext i32 %74 to i64
  %76 = getelementptr inbounds [20 x i8], [20 x i8]* %73, i64 0, i64 %75
  store i8 %70, i8* %76, align 1
  br label %77

77:                                               ; preds = %66
  %78 = load i32, i32* %3, align 4
  %79 = add nsw i32 %78, 1
  store i32 %79, i32* %3, align 4
  br label %59

80:                                               ; preds = %59
  %81 = load i32, i32* %2, align 4
  %82 = sext i32 %81 to i64
  %83 = getelementptr inbounds [100 x [20 x i8]], [100 x [20 x i8]]* %5, i64 0, i64 %82
  %84 = load i32, i32* %3, align 4
  %85 = sext i32 %84 to i64
  %86 = getelementptr inbounds [20 x i8], [20 x i8]* %83, i64 0, i64 %85
  store i8 0, i8* %86, align 1
  br label %87

87:                                               ; preds = %80, %50
  %88 = getelementptr inbounds [20 x i8], [20 x i8]* %4, i64 0, i64 0
  %89 = call i64 @strlen(i8* %88) #3
  %90 = sub i64 %89, 1
  %91 = getelementptr inbounds [20 x i8], [20 x i8]* %4, i64 0, i64 %90
  %92 = load i8, i8* %91, align 1
  %93 = sext i8 %92 to i32
  %94 = icmp eq i32 %93, 103
  br i1 %94, label %95, label %124

95:                                               ; preds = %87
  store i32 0, i32* %3, align 4
  br label %96

96:                                               ; preds = %114, %95
  %97 = load i32, i32* %3, align 4
  %98 = sext i32 %97 to i64
  %99 = getelementptr inbounds [20 x i8], [20 x i8]* %4, i64 0, i64 0
  %100 = call i64 @strlen(i8* %99) #3
  %101 = sub i64 %100, 3
  %102 = icmp ult i64 %98, %101
  br i1 %102, label %103, label %117

103:                                              ; preds = %96
  %104 = load i32, i32* %3, align 4
  %105 = sext i32 %104 to i64
  %106 = getelementptr inbounds [20 x i8], [20 x i8]* %4, i64 0, i64 %105
  %107 = load i8, i8* %106, align 1
  %108 = load i32, i32* %2, align 4
  %109 = sext i32 %108 to i64
  %110 = getelementptr inbounds [100 x [20 x i8]], [100 x [20 x i8]]* %5, i64 0, i64 %109
  %111 = load i32, i32* %3, align 4
  %112 = sext i32 %111 to i64
  %113 = getelementptr inbounds [20 x i8], [20 x i8]* %110, i64 0, i64 %112
  store i8 %107, i8* %113, align 1
  br label %114

114:                                              ; preds = %103
  %115 = load i32, i32* %3, align 4
  %116 = add nsw i32 %115, 1
  store i32 %116, i32* %3, align 4
  br label %96

117:                                              ; preds = %96
  %118 = load i32, i32* %2, align 4
  %119 = sext i32 %118 to i64
  %120 = getelementptr inbounds [100 x [20 x i8]], [100 x [20 x i8]]* %5, i64 0, i64 %119
  %121 = load i32, i32* %3, align 4
  %122 = sext i32 %121 to i64
  %123 = getelementptr inbounds [20 x i8], [20 x i8]* %120, i64 0, i64 %122
  store i8 0, i8* %123, align 1
  br label %124

124:                                              ; preds = %117, %87
  br label %125

125:                                              ; preds = %124
  %126 = load i32, i32* %2, align 4
  %127 = add nsw i32 %126, 1
  store i32 %127, i32* %2, align 4
  br label %7

128:                                              ; preds = %7
  store i32 0, i32* %2, align 4
  br label %129

129:                                              ; preds = %139, %128
  %130 = load i32, i32* %2, align 4
  %131 = load i32, i32* %1, align 4
  %132 = icmp slt i32 %130, %131
  br i1 %132, label %133, label %142

133:                                              ; preds = %129
  %134 = load i32, i32* %2, align 4
  %135 = sext i32 %134 to i64
  %136 = getelementptr inbounds [100 x [20 x i8]], [100 x [20 x i8]]* %5, i64 0, i64 %135
  %137 = getelementptr inbounds [20 x i8], [20 x i8]* %136, i64 0, i64 0
  %138 = call i32 @puts(i8* %137)
  br label %139

139:                                              ; preds = %133
  %140 = load i32, i32* %2, align 4
  %141 = add nsw i32 %140, 1
  store i32 %141, i32* %2, align 4
  br label %129

142:                                              ; preds = %129
  ret void
}

declare dso_local i32 @__isoc99_scanf(i8*, ...) #1

; Function Attrs: nounwind readonly
declare dso_local i64 @strlen(i8*) #2

declare dso_local i32 @puts(i8*) #1


!llvm.module.flags = !{!0}
!llvm.ident = !{!1}

!0 = !{i32 1, !"wchar_size", i32 4}
!1 = !{!"clang version 10.0.0-4ubuntu1 "}
