; ModuleID = 'source-C-CXX/56/2636.c'
source_filename = "source-C-CXX/56/2636.c"
target datalayout = "e-m:e-p270:32:32-p271:32:32-p272:64:64-i64:64-f80:128-n8:16:32:64-S128"
target triple = "x86_64-pc-linux-gnu"

@.str = private unnamed_addr constant [3 x i8] c"%d\00", align 1
@.str.1 = private unnamed_addr constant [3 x i8] c"%s\00", align 1

; Function Attrs: nofree nounwind sspstrong uwtable
define dso_local void @main() local_unnamed_addr #0 {
  %1 = alloca i32, align 4
  %2 = alloca [20 x i8], align 16
  %3 = getelementptr inbounds [20 x i8], [20 x i8]* %2, i64 0, i64 0
  %4 = alloca [100 x [20 x i8]], align 16
  %5 = bitcast i32* %1 to i8*
  call void @llvm.lifetime.start.p0i8(i64 4, i8* nonnull %5) #5
  %6 = getelementptr inbounds [20 x i8], [20 x i8]* %2, i64 0, i64 0
  call void @llvm.lifetime.start.p0i8(i64 20, i8* nonnull %6) #5
  %7 = getelementptr inbounds [100 x [20 x i8]], [100 x [20 x i8]]* %4, i64 0, i64 0, i64 0
  call void @llvm.lifetime.start.p0i8(i64 2000, i8* nonnull %7) #5
  %8 = call i32 (i8*, ...) @__isoc99_scanf(i8* getelementptr inbounds ([3 x i8], [3 x i8]* @.str, i64 0, i64 0), i32* nonnull %1)
  %9 = load i32, i32* %1, align 4, !tbaa !5
  %10 = icmp sgt i32 %9, 0
  br i1 %10, label %13, label %49

11:                                               ; preds = %36
  %12 = icmp sgt i32 %38, 0
  br i1 %12, label %41, label %49

13:                                               ; preds = %0, %36
  %14 = phi i64 [ %37, %36 ], [ 0, %0 ]
  %15 = getelementptr [100 x [20 x i8]], [100 x [20 x i8]]* %4, i64 0, i64 %14, i64 0
  %16 = call i32 (i8*, ...) @__isoc99_scanf(i8* getelementptr inbounds ([3 x i8], [3 x i8]* @.str.1, i64 0, i64 0), i8* nonnull %6)
  %17 = call i64 @strlen(i8* noundef nonnull %6) #6
  %18 = add i64 %17, -1
  %19 = getelementptr inbounds [20 x i8], [20 x i8]* %2, i64 0, i64 %18
  %20 = load i8, i8* %19, align 1, !tbaa !9
  switch i8 %20, label %36 [
    i8 114, label %21
    i8 121, label %24
    i8 103, label %27
  ]

21:                                               ; preds = %13
  %22 = add i64 %17, -2
  %23 = icmp eq i64 %22, 0
  br i1 %23, label %32, label %30

24:                                               ; preds = %13
  %25 = add i64 %17, -2
  %26 = icmp eq i64 %25, 0
  br i1 %26, label %32, label %30

27:                                               ; preds = %13
  %28 = add i64 %17, -3
  %29 = icmp eq i64 %28, 0
  br i1 %29, label %32, label %30

30:                                               ; preds = %27, %24, %21
  %31 = phi i64 [ %22, %21 ], [ %25, %24 ], [ %28, %27 ]
  call void @llvm.memcpy.p0i8.p0i8.i64(i8* align 4 %15, i8* nonnull align 16 %3, i64 %31, i1 false)
  br label %32

32:                                               ; preds = %30, %27, %24, %21
  %33 = phi i64 [ %22, %21 ], [ %25, %24 ], [ %28, %27 ], [ %31, %30 ]
  %34 = and i64 %33, 4294967295
  %35 = getelementptr inbounds [100 x [20 x i8]], [100 x [20 x i8]]* %4, i64 0, i64 %14, i64 %34
  store i8 0, i8* %35, align 1, !tbaa !9
  br label %36

36:                                               ; preds = %32, %13
  %37 = add nuw nsw i64 %14, 1
  %38 = load i32, i32* %1, align 4, !tbaa !5
  %39 = sext i32 %38 to i64
  %40 = icmp slt i64 %37, %39
  br i1 %40, label %13, label %11, !llvm.loop !10

41:                                               ; preds = %11, %41
  %42 = phi i64 [ %45, %41 ], [ 0, %11 ]
  %43 = getelementptr inbounds [100 x [20 x i8]], [100 x [20 x i8]]* %4, i64 0, i64 %42, i64 0
  %44 = call i32 @puts(i8* nonnull %43)
  %45 = add nuw nsw i64 %42, 1
  %46 = load i32, i32* %1, align 4, !tbaa !5
  %47 = sext i32 %46 to i64
  %48 = icmp slt i64 %45, %47
  br i1 %48, label %41, label %49, !llvm.loop !12

49:                                               ; preds = %41, %0, %11
  call void @llvm.lifetime.end.p0i8(i64 2000, i8* nonnull %7) #5
  call void @llvm.lifetime.end.p0i8(i64 20, i8* nonnull %6) #5
  call void @llvm.lifetime.end.p0i8(i64 4, i8* nonnull %5) #5
  ret void
}

; Function Attrs: argmemonly mustprogress nofree nosync nounwind willreturn
declare void @llvm.lifetime.start.p0i8(i64 immarg, i8* nocapture) #1

; Function Attrs: nofree nounwind
declare noundef i32 @__isoc99_scanf(i8* nocapture noundef readonly, ...) local_unnamed_addr #2

; Function Attrs: argmemonly mustprogress nofree nounwind readonly willreturn
declare i64 @strlen(i8* nocapture) local_unnamed_addr #3

; Function Attrs: nofree nounwind
declare noundef i32 @puts(i8* nocapture noundef readonly) local_unnamed_addr #2

; Function Attrs: argmemonly mustprogress nofree nosync nounwind willreturn
declare void @llvm.lifetime.end.p0i8(i64 immarg, i8* nocapture) #1

; Function Attrs: argmemonly nofree nounwind willreturn
declare void @llvm.memcpy.p0i8.p0i8.i64(i8* noalias nocapture writeonly, i8* noalias nocapture readonly, i64, i1 immarg) #4


!llvm.module.flags = !{!0, !1, !2, !3}
!llvm.ident = !{!4}

!0 = !{i32 1, !"wchar_size", i32 4}
!1 = !{i32 7, !"PIC Level", i32 2}
!2 = !{i32 7, !"PIE Level", i32 2}
!3 = !{i32 7, !"uwtable", i32 1}
!4 = !{!"clang version 13.0.0"}
!5 = !{!6, !6, i64 0}
!6 = !{!"int", !7, i64 0}
!7 = !{!"omnipotent char", !8, i64 0}
!8 = !{!"Simple C/C++ TBAA"}
!9 = !{!7, !7, i64 0}
!10 = distinct !{!10, !11}
!11 = !{!"llvm.loop.mustprogress"}
!12 = distinct !{!12, !11}
